target datalayout = "e-m:e-p270:32:32-p271:32:32-p272:64:64-i64:64-i128:128-f80:128-n8:16:32:64-S128"
target triple = "x86_64-pc-linux-gnu"

@.str.10 = private unnamed_addr constant [74 x i8] c"  %04x:%02x:%02x.%01x bridge with (ignored) invalid PCI_PRIMARY_BUS %02x\0A\00", align 1
@.str.11 = private unnamed_addr constant [82 x i8] c"  %04x:%02x:%02x.%01x bridge has invalid secondary-subordinate buses [%02x-%02x]\0A\00", align 1

; Function Attrs: inlinehint nounwind uwtable
define internal void @hwloc_debug(ptr noundef %0, ...) #5 {
  %2 = alloca ptr, align 8
  store ptr %0, ptr %2, align 8, !tbaa !38
  ret void
}

; Function Attrs: nounwind uwtable
define i32 @hwloc_pcidisc_find_bridge_buses(i32 noundef %0, i32 noundef %1, i32 noundef %2, i32 noundef %3, ptr noundef %4, ptr noundef %5, ptr noundef %6) #0 {
  %8 = alloca i32, align 4
  %9 = alloca i32, align 4
  %10 = alloca i32, align 4
  %11 = alloca i32, align 4
  %12 = alloca i32, align 4
  %13 = alloca ptr, align 8
  %14 = alloca ptr, align 8
  %15 = alloca ptr, align 8
  %16 = alloca i32, align 4
  %17 = alloca i32, align 4
  %18 = alloca i32, align 4
  store i32 %0, ptr %9, align 4, !tbaa !40
  store i32 %1, ptr %10, align 4, !tbaa !40
  store i32 %2, ptr %11, align 4, !tbaa !40
  store i32 %3, ptr %12, align 4, !tbaa !40
  store ptr %4, ptr %13, align 8, !tbaa !104
  store ptr %5, ptr %14, align 8, !tbaa !104
  store ptr %6, ptr %15, align 8, !tbaa !38
  call void @llvm.lifetime.start.p0(i64 4, ptr %16) #12
  call void @llvm.lifetime.start.p0(i64 4, ptr %17) #12
  %19 = load ptr, ptr %15, align 8, !tbaa !38
  %20 = getelementptr inbounds i8, ptr %19, i64 24
  %21 = load i8, ptr %20, align 1, !tbaa !44
  %22 = zext i8 %21 to i32
  %23 = load i32, ptr %10, align 4, !tbaa !40
  %24 = icmp ne i32 %22, %23
  br i1 %24, label %25, label %34

25:                                               ; preds = %7
  %26 = load i32, ptr %9, align 4, !tbaa !40
  %27 = load i32, ptr %10, align 4, !tbaa !40
  %28 = load i32, ptr %11, align 4, !tbaa !40
  %29 = load i32, ptr %12, align 4, !tbaa !40
  %30 = load ptr, ptr %15, align 8, !tbaa !38
  %31 = getelementptr inbounds i8, ptr %30, i64 24
  %32 = load i8, ptr %31, align 1, !tbaa !44
  %33 = zext i8 %32 to i32
  call void (ptr, ...) @hwloc_debug(ptr noundef @.str.10, i32 noundef %26, i32 noundef %27, i32 noundef %28, i32 noundef %29, i32 noundef %33)
  br label %34

34:                                               ; preds = %25, %7
  %35 = load ptr, ptr %15, align 8, !tbaa !38
  %36 = getelementptr inbounds i8, ptr %35, i64 25
  %37 = load i8, ptr %36, align 1, !tbaa !44
  %38 = zext i8 %37 to i32
  store i32 %38, ptr %16, align 4, !tbaa !40
  %39 = load ptr, ptr %15, align 8, !tbaa !38
  %40 = getelementptr inbounds i8, ptr %39, i64 26
  %41 = load i8, ptr %40, align 1, !tbaa !44
  %42 = zext i8 %41 to i32
  store i32 %42, ptr %17, align 4, !tbaa !40
  %43 = load i32, ptr %16, align 4, !tbaa !40
  %44 = load i32, ptr %10, align 4, !tbaa !40
  %45 = icmp ule i32 %43, %44
  br i1 %45, label %54, label %46

46:                                               ; preds = %34
  %47 = load i32, ptr %17, align 4, !tbaa !40
  %48 = load i32, ptr %10, align 4, !tbaa !40
  %49 = icmp ule i32 %47, %48
  br i1 %49, label %54, label %50

50:                                               ; preds = %46
  %51 = load i32, ptr %16, align 4, !tbaa !40
  %52 = load i32, ptr %17, align 4, !tbaa !40
  %53 = icmp ugt i32 %51, %52
  br i1 %53, label %54, label %61

54:                                               ; preds = %50, %46, %34
  %55 = load i32, ptr %9, align 4, !tbaa !40
  %56 = load i32, ptr %10, align 4, !tbaa !40
  %57 = load i32, ptr %11, align 4, !tbaa !40
  %58 = load i32, ptr %12, align 4, !tbaa !40
  %59 = load i32, ptr %16, align 4, !tbaa !40
  %60 = load i32, ptr %17, align 4, !tbaa !40
  call void (ptr, ...) @hwloc_debug(ptr noundef @.str.11, i32 noundef %55, i32 noundef %56, i32 noundef %57, i32 noundef %58, i32 noundef %59, i32 noundef %60)
  store i32 -1, ptr %8, align 4
  store i32 1, ptr %18, align 4
  br label %66

61:                                               ; preds = %50
  %62 = load i32, ptr %16, align 4, !tbaa !40
  %63 = load ptr, ptr %13, align 8, !tbaa !104
  store i32 %62, ptr %63, align 4, !tbaa !40
  %64 = load i32, ptr %17, align 4, !tbaa !40
  %65 = load ptr, ptr %14, align 8, !tbaa !104
  store i32 %64, ptr %65, align 4, !tbaa !40
  store i32 0, ptr %8, align 4
  store i32 1, ptr %18, align 4
  br label %66

66:                                               ; preds = %61, %54
  call void @llvm.lifetime.end.p0(i64 4, ptr %17) #12
  call void @llvm.lifetime.end.p0(i64 4, ptr %16) #12
  %67 = load i32, ptr %8, align 4
  ret i32 %67
}