; Function Attrs: mustprogress nofree norecurse nosync nounwind willreturn memory(argmem: readwrite) uwtable
define range(i32 -1, 1) i32 @hwloc_pcidisc_find_bridge_buses(i32 noundef %0, i32 noundef %1, i32 noundef %2, i32 noundef %3, ptr noundef writeonly captures(none) %4, ptr noundef writeonly captures(none) %5, ptr noundef readonly captures(none) %6) local_unnamed_addr #12 {
  %8 = getelementptr inbounds nuw i8, ptr %6, i64 25
  %9 = load i8, ptr %8, align 1, !tbaa !35
  %10 = zext i8 %9 to i32
  %11 = getelementptr inbounds nuw i8, ptr %6, i64 26
  %12 = load i8, ptr %11, align 1, !tbaa !35
  %13 = zext i8 %12 to i32
  %.not29 = icmp uge i32 %1, %10
  %.not30 = icmp uge i32 %1, %13
  %14 = icmp ugt i8 %9, %12
  %15 = or i1 %14, %.not30
  %or.cond31 = select i1 %.not29, i1 true, i1 %15
  br i1 %or.cond31, label %17, label %16

16:                                               ; preds = %7
  store i32 %10, ptr %4, align 4, !tbaa !39
  store i32 %13, ptr %5, align 4, !tbaa !39
  br label %17

17:                                               ; preds = %7, %16
  %.0 = phi i32 [ 0, %16 ], [ -1, %7 ]
  ret i32 %.0
}